target datalayout = "e-m:e-p270:32:32-p271:32:32-p272:64:64-i64:64-i128:128-f80:128-n8:16:32:64-S128"
target triple = "x86_64-pc-linux-gnu"

@crc_table_reflected = internal constant [256 x i16] [i16 0, i16 -16191, i16 -15999, i16 320, i16 -15615, i16 960, i16 640, i16 -15807, i16 -14847, i16 1728, i16 1920, i16 -14527, i16 1280, i16 -14911, i16 -15231, i16 1088, i16 -13311, i16 3264, i16 3456, i16 -12991, i16 3840, i16 -12351, i16 -12671, i16 3648, i16 2560, i16 -13631, i16 -13439, i16 2880, i16 -14079, i16 2496, i16 2176, i16 -14271, i16 -10239, i16 6336, i16 6528, i16 -9919, i16 6912, i16 -9279, i16 -9599, i16 6720, i16 7680, i16 -8511, i16 -8319, i16 8000, i16 -8959, i16 7616, i16 7296, i16 -9151, i16 5120, i16 -11071, i16 -10879, i16 5440, i16 -10495, i16 6080, i16 5760, i16 -10687, i16 -11775, i16 4800, i16 4992, i16 -11455, i16 4352, i16 -11839, i16 -12159, i16 4160, i16 -4095, i16 12480, i16 12672, i16 -3775, i16 13056, i16 -3135, i16 -3455, i16 12864, i16 13824, i16 -2367, i16 -2175, i16 14144, i16 -2815, i16 13760, i16 13440, i16 -3007, i16 15360, i16 -831, i16 -639, i16 15680, i16 -255, i16 16320, i16 16000, i16 -447, i16 -1535, i16 15040, i16 15232, i16 -1215, i16 14592, i16 -1599, i16 -1919, i16 14400, i16 10240, i16 -5951, i16 -5759, i16 10560, i16 -5375, i16 11200, i16 10880, i16 -5567, i16 -4607, i16 11968, i16 12160, i16 -4287, i16 11520, i16 -4671, i16 -4991, i16 11328, i16 -7167, i16 9408, i16 9600, i16 -6847, i16 9984, i16 -6207, i16 -6527, i16 9792, i16 8704, i16 -7487, i16 -7295, i16 9024, i16 -7935, i16 8640, i16 8320, i16 -8127, i16 -24575, i16 24768, i16 24960, i16 -24255, i16 25344, i16 -23615, i16 -23935, i16 25152, i16 26112, i16 -22847, i16 -22655, i16 26432, i16 -23295, i16 26048, i16 25728, i16 -23487, i16 27648, i16 -21311, i16 -21119, i16 27968, i16 -20735, i16 28608, i16 28288, i16 -20927, i16 -22015, i16 27328, i16 27520, i16 -21695, i16 26880, i16 -22079, i16 -22399, i16 26688, i16 30720, i16 -18239, i16 -18047, i16 31040, i16 -17663, i16 31680, i16 31360, i16 -17855, i16 -16895, i16 32448, i16 32640, i16 -16575, i16 32000, i16 -16959, i16 -17279, i16 31808, i16 -19455, i16 29888, i16 30080, i16 -19135, i16 30464, i16 -18495, i16 -18815, i16 30272, i16 29184, i16 -19775, i16 -19583, i16 29504, i16 -20223, i16 29120, i16 28800, i16 -20415, i16 20480, i16 -28479, i16 -28287, i16 20800, i16 -27903, i16 21440, i16 21120, i16 -28095, i16 -27135, i16 22208, i16 22400, i16 -26815, i16 21760, i16 -27199, i16 -27519, i16 21568, i16 -25599, i16 23744, i16 23936, i16 -25279, i16 24320, i16 -24639, i16 -24959, i16 24128, i16 23040, i16 -25919, i16 -25727, i16 23360, i16 -26367, i16 22976, i16 22656, i16 -26559, i16 -30719, i16 18624, i16 18816, i16 -30399, i16 19200, i16 -29759, i16 -30079, i16 19008, i16 19968, i16 -28991, i16 -28799, i16 20288, i16 -29439, i16 19904, i16 19584, i16 -29631, i16 17408, i16 -31551, i16 -31359, i16 17728, i16 -30975, i16 18368, i16 18048, i16 -31167, i16 -32255, i16 17088, i16 17280, i16 -31935, i16 16640, i16 -32319, i16 -32639, i16 16448], align 16
@crc16_table_8005_noreflect_noxor = internal constant [256 x i16] [i16 0, i16 -32763, i16 -32753, i16 10, i16 -32741, i16 30, i16 20, i16 -32751, i16 -32717, i16 54, i16 60, i16 -32711, i16 40, i16 -32723, i16 -32729, i16 34, i16 -32669, i16 102, i16 108, i16 -32663, i16 120, i16 -32643, i16 -32649, i16 114, i16 80, i16 -32683, i16 -32673, i16 90, i16 -32693, i16 78, i16 68, i16 -32703, i16 -32573, i16 198, i16 204, i16 -32567, i16 216, i16 -32547, i16 -32553, i16 210, i16 240, i16 -32523, i16 -32513, i16 250, i16 -32533, i16 238, i16 228, i16 -32543, i16 160, i16 -32603, i16 -32593, i16 170, i16 -32581, i16 190, i16 180, i16 -32591, i16 -32621, i16 150, i16 156, i16 -32615, i16 136, i16 -32627, i16 -32633, i16 130, i16 -32381, i16 390, i16 396, i16 -32375, i16 408, i16 -32355, i16 -32361, i16 402, i16 432, i16 -32331, i16 -32321, i16 442, i16 -32341, i16 430, i16 420, i16 -32351, i16 480, i16 -32283, i16 -32273, i16 490, i16 -32261, i16 510, i16 500, i16 -32271, i16 -32301, i16 470, i16 476, i16 -32295, i16 456, i16 -32307, i16 -32313, i16 450, i16 320, i16 -32443, i16 -32433, i16 330, i16 -32421, i16 350, i16 340, i16 -32431, i16 -32397, i16 374, i16 380, i16 -32391, i16 360, i16 -32403, i16 -32409, i16 354, i16 -32477, i16 294, i16 300, i16 -32471, i16 312, i16 -32451, i16 -32457, i16 306, i16 272, i16 -32491, i16 -32481, i16 282, i16 -32501, i16 270, i16 260, i16 -32511, i16 -31997, i16 774, i16 780, i16 -31991, i16 792, i16 -31971, i16 -31977, i16 786, i16 816, i16 -31947, i16 -31937, i16 826, i16 -31957, i16 814, i16 804, i16 -31967, i16 864, i16 -31899, i16 -31889, i16 874, i16 -31877, i16 894, i16 884, i16 -31887, i16 -31917, i16 854, i16 860, i16 -31911, i16 840, i16 -31923, i16 -31929, i16 834, i16 960, i16 -31803, i16 -31793, i16 970, i16 -31781, i16 990, i16 980, i16 -31791, i16 -31757, i16 1014, i16 1020, i16 -31751, i16 1000, i16 -31763, i16 -31769, i16 994, i16 -31837, i16 934, i16 940, i16 -31831, i16 952, i16 -31811, i16 -31817, i16 946, i16 912, i16 -31851, i16 -31841, i16 922, i16 -31861, i16 910, i16 900, i16 -31871, i16 640, i16 -32123, i16 -32113, i16 650, i16 -32101, i16 670, i16 660, i16 -32111, i16 -32077, i16 694, i16 700, i16 -32071, i16 680, i16 -32083, i16 -32089, i16 674, i16 -32029, i16 742, i16 748, i16 -32023, i16 760, i16 -32003, i16 -32009, i16 754, i16 720, i16 -32043, i16 -32033, i16 730, i16 -32053, i16 718, i16 708, i16 -32063, i16 -32189, i16 582, i16 588, i16 -32183, i16 600, i16 -32163, i16 -32169, i16 594, i16 624, i16 -32139, i16 -32129, i16 634, i16 -32149, i16 622, i16 612, i16 -32159, i16 544, i16 -32219, i16 -32209, i16 554, i16 -32197, i16 574, i16 564, i16 -32207, i16 -32237, i16 534, i16 540, i16 -32231, i16 520, i16 -32243, i16 -32249, i16 514], align 16

; Function Attrs: nounwind null_pointer_is_valid sspstrong uwtable
define hidden i64 @crc16_plain_reflect(i64 noundef %0, i64 noundef %1) #0 {
  %3 = alloca i64, align 8
  %4 = alloca i64, align 8
  %5 = alloca i32, align 4
  %6 = alloca i64, align 8
  store i64 %0, ptr %3, align 8
  store i64 %1, ptr %4, align 8
  call void @llvm.lifetime.start.p0(i64 4, ptr %5) #2
  call void @llvm.lifetime.start.p0(i64 8, ptr %6) #2
  %7 = load i64, ptr %3, align 8
  %8 = and i64 %7, 1
  store i64 %8, ptr %6, align 8
  store i32 1, ptr %5, align 4
  br label %9

9:                                                ; preds = %22, %2
  %10 = load i32, ptr %5, align 4
  %11 = zext i32 %10 to i64
  %12 = load i64, ptr %4, align 8
  %13 = icmp ult i64 %11, %12
  br i1 %13, label %14, label %25

14:                                               ; preds = %9
  %15 = load i64, ptr %3, align 8
  %16 = ashr i64 %15, 1
  store i64 %16, ptr %3, align 8
  %17 = load i64, ptr %6, align 8
  %18 = shl i64 %17, 1
  %19 = load i64, ptr %3, align 8
  %20 = and i64 %19, 1
  %21 = or i64 %18, %20
  store i64 %21, ptr %6, align 8
  br label %22

22:                                               ; preds = %14
  %23 = load i32, ptr %5, align 4
  %24 = add i32 %23, 1
  store i32 %24, ptr %5, align 4
  br label %9, !llvm.loop !6

25:                                               ; preds = %9
  %26 = load i64, ptr %6, align 8
  call void @llvm.lifetime.end.p0(i64 8, ptr %6) #2
  call void @llvm.lifetime.end.p0(i64 4, ptr %5) #2
  ret i64 %26
}

; Function Attrs: nocallback nofree nosync nounwind willreturn memory(argmem: readwrite)
declare void @llvm.lifetime.start.p0(i64 immarg, ptr captures(none)) #1

; Function Attrs: nocallback nofree nosync nounwind willreturn memory(argmem: readwrite)
declare void @llvm.lifetime.end.p0(i64 immarg, ptr captures(none)) #1

; Function Attrs: nounwind null_pointer_is_valid sspstrong uwtable
define zeroext i16 @crc16_plain_update(i16 noundef zeroext %0, ptr noundef %1, i64 noundef %2) #0 {
  %4 = alloca i16, align 2
  %5 = alloca ptr, align 8
  %6 = alloca i64, align 8
  %7 = alloca i32, align 4
  store i16 %0, ptr %4, align 2
  store ptr %1, ptr %5, align 8
  store i64 %2, ptr %6, align 8
  call void @llvm.lifetime.start.p0(i64 4, ptr %7) #2
  br label %8

8:                                                ; preds = %12, %3
  %9 = load i64, ptr %6, align 8
  %10 = add i64 %9, -1
  store i64 %10, ptr %6, align 8
  %11 = icmp ne i64 %9, 0
  br i1 %11, label %12, label %33

12:                                               ; preds = %8
  %13 = load i16, ptr %4, align 2
  %14 = zext i16 %13 to i32
  %15 = load ptr, ptr %5, align 8
  %16 = load i8, ptr %15, align 1
  %17 = zext i8 %16 to i32
  %18 = xor i32 %14, %17
  %19 = and i32 %18, 255
  store i32 %19, ptr %7, align 4
  %20 = load i32, ptr %7, align 4
  %21 = zext i32 %20 to i64
  %22 = getelementptr [256 x i16], ptr @crc_table_reflected, i64 0, i64 %21
  %23 = load i16, ptr %22, align 2
  %24 = zext i16 %23 to i32
  %25 = load i16, ptr %4, align 2
  %26 = zext i16 %25 to i32
  %27 = ashr i32 %26, 8
  %28 = xor i32 %24, %27
  %29 = and i32 %28, 65535
  %30 = trunc i32 %29 to i16
  store i16 %30, ptr %4, align 2
  %31 = load ptr, ptr %5, align 8
  %32 = getelementptr i8, ptr %31, i32 1
  store ptr %32, ptr %5, align 8
  br label %8, !llvm.loop !8

33:                                               ; preds = %8
  %34 = load i16, ptr %4, align 2
  %35 = zext i16 %34 to i32
  %36 = and i32 %35, 65535
  %37 = trunc i32 %36 to i16
  call void @llvm.lifetime.end.p0(i64 4, ptr %7) #2
  ret i16 %37
}

; Function Attrs: nounwind null_pointer_is_valid sspstrong uwtable
define zeroext i16 @crc16_8005_noreflect_noxor(ptr noundef %0, i64 noundef %1) #0 {
  %3 = alloca ptr, align 8
  %4 = alloca i64, align 8
  %5 = alloca i32, align 4
  %6 = alloca i16, align 2
  store ptr %0, ptr %3, align 8
  store i64 %1, ptr %4, align 8
  call void @llvm.lifetime.start.p0(i64 4, ptr %5) #2
  call void @llvm.lifetime.start.p0(i64 2, ptr %6) #2
  store i16 0, ptr %6, align 2
  br label %7

7:                                                ; preds = %11, %2
  %8 = load i64, ptr %4, align 8
  %9 = add i64 %8, -1
  store i64 %9, ptr %4, align 8
  %10 = icmp ne i64 %8, 0
  br i1 %10, label %11, label %33

11:                                               ; preds = %7
  %12 = load i16, ptr %6, align 2
  %13 = zext i16 %12 to i32
  %14 = ashr i32 %13, 8
  %15 = load ptr, ptr %3, align 8
  %16 = load i8, ptr %15, align 1
  %17 = zext i8 %16 to i32
  %18 = xor i32 %14, %17
  %19 = and i32 %18, 255
  store i32 %19, ptr %5, align 4
  %20 = load i32, ptr %5, align 4
  %21 = zext i32 %20 to i64
  %22 = getelementptr [256 x i16], ptr @crc16_table_8005_noreflect_noxor, i64 0, i64 %21
  %23 = load i16, ptr %22, align 2
  %24 = zext i16 %23 to i32
  %25 = load i16, ptr %6, align 2
  %26 = zext i16 %25 to i32
  %27 = shl i32 %26, 8
  %28 = xor i32 %24, %27
  %29 = and i32 %28, 65535
  %30 = trunc i32 %29 to i16
  store i16 %30, ptr %6, align 2
  %31 = load ptr, ptr %3, align 8
  %32 = getelementptr i8, ptr %31, i32 1
  store ptr %32, ptr %3, align 8
  br label %7, !llvm.loop !9

33:                                               ; preds = %7
  %34 = load i16, ptr %6, align 2
  %35 = zext i16 %34 to i32
  %36 = and i32 %35, 65535
  %37 = trunc i32 %36 to i16
  call void @llvm.lifetime.end.p0(i64 2, ptr %6) #2
  call void @llvm.lifetime.end.p0(i64 4, ptr %5) #2
  ret i16 %37
}


!llvm.module.flags = !{!0, !1, !2, !3, !4, !5}

!0 = !{i32 1, !"wchar_size", i32 4}
!1 = !{i32 8, !"cf-protection-return", i32 1}
!2 = !{i32 8, !"cf-protection-branch", i32 1}
!3 = !{i32 4, !"probe-stack", !"inline-asm"}
!4 = !{i32 8, !"PIC Level", i32 2}
!5 = !{i32 7, !"uwtable", i32 2}
!6 = distinct !{!6, !7}
!7 = !{!"llvm.loop.mustprogress"}
!8 = distinct !{!8, !7}
!9 = distinct !{!9, !7}
